; ModuleID = '44/1004.c'
source_filename = "44/1004.c"
target datalayout = "e-m:e-p270:32:32-p271:32:32-p272:64:64-i64:64-f80:128-n8:16:32:64-S128"
target triple = "x86_64-pc-linux-gnu"

@.str = private unnamed_addr constant [3 x i8] c"%d\00", align 1
@.str.1 = private unnamed_addr constant [3 x i8] c"0\0A\00", align 1
@.str.2 = private unnamed_addr constant [2 x i8] c"-\00", align 1
@.str.3 = private unnamed_addr constant [4 x i8] c"%d\0A\00", align 1

; Function Attrs: noinline nounwind uwtable
define dso_local i32 @rev(i32 %0) #0 {
  %2 = alloca i32, align 4
  %3 = alloca [1050 x i8], align 16
  %4 = alloca i32, align 4
  %5 = alloca i32, align 4
  %6 = alloca i32, align 4
  %7 = alloca i32, align 4
  store i32 %0, i32* %2, align 4
  %8 = load i32, i32* %2, align 4
  store i32 %8, i32* %4, align 4
  store i32 0, i32* %5, align 4
  store i32 0, i32* %6, align 4
  br label %9

9:                                                ; preds = %12, %1
  %10 = load i32, i32* %4, align 4
  %11 = icmp sgt i32 %10, 0
  br i1 %11, label %12, label %23

12:                                               ; preds = %9
  %13 = load i32, i32* %4, align 4
  %14 = srem i32 %13, 10
  %15 = trunc i32 %14 to i8
  %16 = load i32, i32* %6, align 4
  %17 = sext i32 %16 to i64
  %18 = getelementptr inbounds [1050 x i8], [1050 x i8]* %3, i64 0, i64 %17
  store i8 %15, i8* %18, align 1
  %19 = load i32, i32* %4, align 4
  %20 = sdiv i32 %19, 10
  store i32 %20, i32* %4, align 4
  %21 = load i32, i32* %6, align 4
  %22 = add nsw i32 %21, 1
  store i32 %22, i32* %6, align 4
  br label %9

23:                                               ; preds = %9
  %24 = load i32, i32* %6, align 4
  %25 = add nsw i32 %24, -1
  store i32 %25, i32* %6, align 4
  store i32 1, i32* %7, align 4
  br label %26

26:                                               ; preds = %33, %23
  %27 = load i32, i32* %6, align 4
  %28 = sext i32 %27 to i64
  %29 = getelementptr inbounds [1050 x i8], [1050 x i8]* %3, i64 0, i64 %28
  %30 = load i8, i8* %29, align 1
  %31 = sext i8 %30 to i32
  %32 = icmp eq i32 %31, 0
  br i1 %32, label %33, label %36

33:                                               ; preds = %26
  %34 = load i32, i32* %6, align 4
  %35 = add nsw i32 %34, -1
  store i32 %35, i32* %6, align 4
  br label %26

36:                                               ; preds = %26
  br label %37

37:                                               ; preds = %52, %36
  %38 = load i32, i32* %6, align 4
  %39 = icmp sge i32 %38, 0
  br i1 %39, label %40, label %55

40:                                               ; preds = %37
  %41 = load i32, i32* %6, align 4
  %42 = sext i32 %41 to i64
  %43 = getelementptr inbounds [1050 x i8], [1050 x i8]* %3, i64 0, i64 %42
  %44 = load i8, i8* %43, align 1
  %45 = sext i8 %44 to i32
  %46 = load i32, i32* %7, align 4
  %47 = mul nsw i32 %45, %46
  %48 = load i32, i32* %5, align 4
  %49 = add nsw i32 %48, %47
  store i32 %49, i32* %5, align 4
  %50 = load i32, i32* %7, align 4
  %51 = mul nsw i32 %50, 10
  store i32 %51, i32* %7, align 4
  br label %52

52:                                               ; preds = %40
  %53 = load i32, i32* %6, align 4
  %54 = add nsw i32 %53, -1
  store i32 %54, i32* %6, align 4
  br label %37

55:                                               ; preds = %37
  %56 = load i32, i32* %5, align 4
  ret i32 %56
}

; Function Attrs: noinline nounwind uwtable
define dso_local i32 @main() #0 {
  %1 = alloca i32, align 4
  %2 = alloca i32, align 4
  %3 = alloca i32, align 4
  %4 = alloca i32, align 4
  store i32 0, i32* %1, align 4
  store i32 1, i32* %2, align 4
  br label %5

5:                                                ; preds = %33, %0
  %6 = load i32, i32* %2, align 4
  %7 = icmp sle i32 %6, 6
  br i1 %7, label %8, label %36

8:                                                ; preds = %5
  %9 = call i32 (i8*, ...) @__isoc99_scanf(i8* getelementptr inbounds ([3 x i8], [3 x i8]* @.str, i64 0, i64 0), i32* %3)
  %10 = load i32, i32* %3, align 4
  %11 = icmp slt i32 %10, 0
  br i1 %11, label %12, label %15

12:                                               ; preds = %8
  %13 = load i32, i32* %3, align 4
  %14 = sub nsw i32 0, %13
  store i32 %14, i32* %4, align 4
  br label %17

15:                                               ; preds = %8
  %16 = load i32, i32* %3, align 4
  store i32 %16, i32* %4, align 4
  br label %17

17:                                               ; preds = %15, %12
  %18 = load i32, i32* %4, align 4
  %19 = icmp eq i32 %18, 0
  br i1 %19, label %20, label %22

20:                                               ; preds = %17
  %21 = call i32 (i8*, ...) @printf(i8* getelementptr inbounds ([3 x i8], [3 x i8]* @.str.1, i64 0, i64 0))
  br label %32

22:                                               ; preds = %17
  %23 = load i32, i32* %4, align 4
  %24 = call i32 @rev(i32 %23)
  store i32 %24, i32* %4, align 4
  %25 = load i32, i32* %3, align 4
  %26 = icmp slt i32 %25, 0
  br i1 %26, label %27, label %29

27:                                               ; preds = %22
  %28 = call i32 (i8*, ...) @printf(i8* getelementptr inbounds ([2 x i8], [2 x i8]* @.str.2, i64 0, i64 0))
  br label %29

29:                                               ; preds = %27, %22
  %30 = load i32, i32* %4, align 4
  %31 = call i32 (i8*, ...) @printf(i8* getelementptr inbounds ([4 x i8], [4 x i8]* @.str.3, i64 0, i64 0), i32 %30)
  br label %32

32:                                               ; preds = %29, %20
  br label %33

33:                                               ; preds = %32
  %34 = load i32, i32* %2, align 4
  %35 = add nsw i32 %34, 1
  store i32 %35, i32* %2, align 4
  br label %5

36:                                               ; preds = %5
  %37 = load i32, i32* %1, align 4
  ret i32 %37
}

declare dso_local i32 @__isoc99_scanf(i8*, ...) #1

declare dso_local i32 @printf(i8*, ...) #1


!llvm.module.flags = !{!0}
!llvm.ident = !{!1}

!0 = !{i32 1, !"wchar_size", i32 4}
!1 = !{!"clang version 10.0.0-4ubuntu1 "}
